target datalayout = "e-m:e-p270:32:32-p271:32:32-p272:64:64-i64:64-i128:128-f80:128-n8:16:32:64-S128"
target triple = "x86_64-pc-linux-gnu"

%struct.H5S_t = type { %struct.H5S_extent_t, %struct.H5S_select_t }
%struct.H5S_extent_t = type { %struct.H5O_shared_t, i32, i32, i64, i32, ptr, ptr }
%struct.H5O_shared_t = type { i32, ptr, i32, %union.anon }
%union.anon = type { %struct.H5O_mesg_loc_t }
%struct.H5O_mesg_loc_t = type { i32, i64 }
%struct.H5S_select_t = type { ptr, i8, [32 x i64], i64, %union.anon.0 }
%union.anon.0 = type { ptr }
%struct.H5S_hyper_sel_t = type { i32, %struct.H5S_hyper_diminfo_t, i32, i64, ptr }
%struct.H5S_hyper_diminfo_t = type { [32 x %struct.H5S_hyper_dim_t], [32 x %struct.H5S_hyper_dim_t], [32 x i64], [32 x i64] }
%struct.H5S_hyper_dim_t = type { i64, i64, i64, i64 }

@H5S_init_g = external global i8, align 1
@H5_libterm_g = external global i8, align 1
@H5S_hyper_op_gen_g = internal global i64 1, align 8

; Function Attrs: nounwind uwtable
define i64 @H5S__hyper_get_op_gen() #0 {
  %1 = load i8, ptr @H5S_init_g, align 1, !tbaa !8, !range !12, !noundef !13
  %2 = trunc i8 %1 to i1
  br i1 %2, label %7, label %3

3:                                                ; preds = %0
  %4 = load i8, ptr @H5_libterm_g, align 1, !tbaa !8, !range !12, !noundef !13
  %5 = trunc i8 %4 to i1
  %6 = xor i1 %5, true
  br label %7

7:                                                ; preds = %3, %0
  %8 = phi i1 [ true, %0 ], [ %6, %3 ]
  %9 = xor i1 %8, true
  %10 = xor i1 %9, true
  %11 = zext i1 %10 to i32
  %12 = sext i32 %11 to i64
  %13 = call i64 @llvm.expect.i64(i64 %12, i64 1)
  %14 = icmp ne i64 %13, 0
  br i1 %14, label %15, label %16

15:                                               ; preds = %7
  br label %16

16:                                               ; preds = %15, %7
  %17 = load i64, ptr @H5S_hyper_op_gen_g, align 8, !tbaa !15
  %18 = add i64 %17, 1
  store i64 %18, ptr @H5S_hyper_op_gen_g, align 8, !tbaa !15
  ret i64 %17
}

; Function Attrs: nounwind uwtable
define internal i32 @H5S__hyper_adjust_u(ptr noundef %0, ptr noundef %1) #0 {
  %3 = alloca ptr, align 8
  %4 = alloca ptr, align 8
  %5 = alloca i8, align 1
  %6 = alloca i32, align 4
  %7 = alloca i64, align 8
  store ptr %0, ptr %3, align 8, !tbaa !3
  store ptr %1, ptr %4, align 8, !tbaa !33
  call void @llvm.lifetime.start.p0(i64 1, ptr %5) #7
  store i8 0, ptr %5, align 1, !tbaa !8
  call void @llvm.lifetime.start.p0(i64 4, ptr %6) #7
  %8 = load i8, ptr @H5S_init_g, align 1, !tbaa !8, !range !12, !noundef !13
  %9 = trunc i8 %8 to i1
  br i1 %9, label %14, label %10

10:                                               ; preds = %2
  %11 = load i8, ptr @H5_libterm_g, align 1, !tbaa !8, !range !12, !noundef !13
  %12 = trunc i8 %11 to i1
  %13 = xor i1 %12, true
  br label %14

14:                                               ; preds = %10, %2
  %15 = phi i1 [ true, %2 ], [ %13, %10 ]
  %16 = xor i1 %15, true
  %17 = xor i1 %16, true
  %18 = zext i1 %17 to i32
  %19 = sext i32 %18 to i64
  %20 = call i64 @llvm.expect.i64(i64 %19, i64 1)
  %21 = icmp ne i64 %20, 0
  br i1 %21, label %22, label %139

22:                                               ; preds = %14
  store i32 0, ptr %6, align 4, !tbaa !10
  br label %23

23:                                               ; preds = %39, %22
  %24 = load i32, ptr %6, align 4, !tbaa !10
  %25 = load ptr, ptr %3, align 8, !tbaa !3
  %26 = getelementptr inbounds nuw %struct.H5S_t, ptr %25, i32 0, i32 0
  %27 = getelementptr inbounds nuw %struct.H5S_extent_t, ptr %26, i32 0, i32 4
  %28 = load i32, ptr %27, align 8, !tbaa !23
  %29 = icmp ult i32 %24, %28
  br i1 %29, label %30, label %42

30:                                               ; preds = %23
  %31 = load ptr, ptr %4, align 8, !tbaa !33
  %32 = load i32, ptr %6, align 4, !tbaa !10
  %33 = zext i32 %32 to i64
  %34 = getelementptr inbounds nuw i64, ptr %31, i64 %33
  %35 = load i64, ptr %34, align 8, !tbaa !15
  %36 = icmp ne i64 0, %35
  br i1 %36, label %37, label %38

37:                                               ; preds = %30
  store i8 1, ptr %5, align 1, !tbaa !8
  br label %42

38:                                               ; preds = %30
  br label %39

39:                                               ; preds = %38
  %40 = load i32, ptr %6, align 4, !tbaa !10
  %41 = add i32 %40, 1
  store i32 %41, ptr %6, align 4, !tbaa !10
  br label %23, !llvm.loop !119

42:                                               ; preds = %37, %23
  %43 = load i8, ptr %5, align 1, !tbaa !8, !range !12, !noundef !13
  %44 = trunc i8 %43 to i1
  br i1 %44, label %45, label %138

45:                                               ; preds = %42
  %46 = load ptr, ptr %3, align 8, !tbaa !3
  %47 = getelementptr inbounds nuw %struct.H5S_t, ptr %46, i32 0, i32 1
  %48 = getelementptr inbounds nuw %struct.H5S_select_t, ptr %47, i32 0, i32 4
  %49 = load ptr, ptr %48, align 8, !tbaa !14
  %50 = getelementptr inbounds nuw %struct.H5S_hyper_sel_t, ptr %49, i32 0, i32 0
  %51 = load i32, ptr %50, align 8, !tbaa !18
  %52 = icmp eq i32 %51, 2
  br i1 %52, label %53, label %115

53:                                               ; preds = %45
  store i32 0, ptr %6, align 4, !tbaa !10
  br label %54

54:                                               ; preds = %111, %53
  %55 = load i32, ptr %6, align 4, !tbaa !10
  %56 = load ptr, ptr %3, align 8, !tbaa !3
  %57 = getelementptr inbounds nuw %struct.H5S_t, ptr %56, i32 0, i32 0
  %58 = getelementptr inbounds nuw %struct.H5S_extent_t, ptr %57, i32 0, i32 4
  %59 = load i32, ptr %58, align 8, !tbaa !23
  %60 = icmp ult i32 %55, %59
  br i1 %60, label %61, label %114

61:                                               ; preds = %54
  %62 = load ptr, ptr %4, align 8, !tbaa !33
  %63 = load i32, ptr %6, align 4, !tbaa !10
  %64 = zext i32 %63 to i64
  %65 = getelementptr inbounds nuw i64, ptr %62, i64 %64
  %66 = load i64, ptr %65, align 8, !tbaa !15
  %67 = load ptr, ptr %3, align 8, !tbaa !3
  %68 = getelementptr inbounds nuw %struct.H5S_t, ptr %67, i32 0, i32 1
  %69 = getelementptr inbounds nuw %struct.H5S_select_t, ptr %68, i32 0, i32 4
  %70 = load ptr, ptr %69, align 8, !tbaa !14
  %71 = getelementptr inbounds nuw %struct.H5S_hyper_sel_t, ptr %70, i32 0, i32 1
  %72 = getelementptr inbounds nuw %struct.H5S_hyper_diminfo_t, ptr %71, i32 0, i32 1
  %73 = load i32, ptr %6, align 4, !tbaa !10
  %74 = zext i32 %73 to i64
  %75 = getelementptr inbounds nuw [32 x %struct.H5S_hyper_dim_t], ptr %72, i64 0, i64 %74
  %76 = getelementptr inbounds nuw %struct.H5S_hyper_dim_t, ptr %75, i32 0, i32 0
  %77 = load i64, ptr %76, align 8, !tbaa !46
  %78 = sub i64 %77, %66
  store i64 %78, ptr %76, align 8, !tbaa !46
  %79 = load ptr, ptr %4, align 8, !tbaa !33
  %80 = load i32, ptr %6, align 4, !tbaa !10
  %81 = zext i32 %80 to i64
  %82 = getelementptr inbounds nuw i64, ptr %79, i64 %81
  %83 = load i64, ptr %82, align 8, !tbaa !15
  %84 = load ptr, ptr %3, align 8, !tbaa !3
  %85 = getelementptr inbounds nuw %struct.H5S_t, ptr %84, i32 0, i32 1
  %86 = getelementptr inbounds nuw %struct.H5S_select_t, ptr %85, i32 0, i32 4
  %87 = load ptr, ptr %86, align 8, !tbaa !14
  %88 = getelementptr inbounds nuw %struct.H5S_hyper_sel_t, ptr %87, i32 0, i32 1
  %89 = getelementptr inbounds nuw %struct.H5S_hyper_diminfo_t, ptr %88, i32 0, i32 2
  %90 = load i32, ptr %6, align 4, !tbaa !10
  %91 = zext i32 %90 to i64
  %92 = getelementptr inbounds nuw [32 x i64], ptr %89, i64 0, i64 %91
  %93 = load i64, ptr %92, align 8, !tbaa !15
  %94 = sub i64 %93, %83
  store i64 %94, ptr %92, align 8, !tbaa !15
  %95 = load ptr, ptr %4, align 8, !tbaa !33
  %96 = load i32, ptr %6, align 4, !tbaa !10
  %97 = zext i32 %96 to i64
  %98 = getelementptr inbounds nuw i64, ptr %95, i64 %97
  %99 = load i64, ptr %98, align 8, !tbaa !15
  %100 = load ptr, ptr %3, align 8, !tbaa !3
  %101 = getelementptr inbounds nuw %struct.H5S_t, ptr %100, i32 0, i32 1
  %102 = getelementptr inbounds nuw %struct.H5S_select_t, ptr %101, i32 0, i32 4
  %103 = load ptr, ptr %102, align 8, !tbaa !14
  %104 = getelementptr inbounds nuw %struct.H5S_hyper_sel_t, ptr %103, i32 0, i32 1
  %105 = getelementptr inbounds nuw %struct.H5S_hyper_diminfo_t, ptr %104, i32 0, i32 3
  %106 = load i32, ptr %6, align 4, !tbaa !10
  %107 = zext i32 %106 to i64
  %108 = getelementptr inbounds nuw [32 x i64], ptr %105, i64 0, i64 %107
  %109 = load i64, ptr %108, align 8, !tbaa !15
  %110 = sub i64 %109, %99
  store i64 %110, ptr %108, align 8, !tbaa !15
  br label %111

111:                                              ; preds = %61
  %112 = load i32, ptr %6, align 4, !tbaa !10
  %113 = add i32 %112, 1
  store i32 %113, ptr %6, align 4, !tbaa !10
  br label %54, !llvm.loop !120

114:                                              ; preds = %54
  br label %115

115:                                              ; preds = %114, %45
  %116 = load ptr, ptr %3, align 8, !tbaa !3
  %117 = getelementptr inbounds nuw %struct.H5S_t, ptr %116, i32 0, i32 1
  %118 = getelementptr inbounds nuw %struct.H5S_select_t, ptr %117, i32 0, i32 4
  %119 = load ptr, ptr %118, align 8, !tbaa !14
  %120 = getelementptr inbounds nuw %struct.H5S_hyper_sel_t, ptr %119, i32 0, i32 4
  %121 = load ptr, ptr %120, align 8, !tbaa !22
  %122 = icmp ne ptr %121, null
  br i1 %122, label %123, label %137

123:                                              ; preds = %115
  call void @llvm.lifetime.start.p0(i64 8, ptr %7) #7
  %124 = call i64 @H5S__hyper_get_op_gen()
  store i64 %124, ptr %7, align 8, !tbaa !15
  %125 = load ptr, ptr %3, align 8, !tbaa !3
  %126 = getelementptr inbounds nuw %struct.H5S_t, ptr %125, i32 0, i32 1
  %127 = getelementptr inbounds nuw %struct.H5S_select_t, ptr %126, i32 0, i32 4
  %128 = load ptr, ptr %127, align 8, !tbaa !14
  %129 = getelementptr inbounds nuw %struct.H5S_hyper_sel_t, ptr %128, i32 0, i32 4
  %130 = load ptr, ptr %129, align 8, !tbaa !22
  %131 = load ptr, ptr %3, align 8, !tbaa !3
  %132 = getelementptr inbounds nuw %struct.H5S_t, ptr %131, i32 0, i32 0
  %133 = getelementptr inbounds nuw %struct.H5S_extent_t, ptr %132, i32 0, i32 4
  %134 = load i32, ptr %133, align 8, !tbaa !23
  %135 = load ptr, ptr %4, align 8, !tbaa !33
  %136 = load i64, ptr %7, align 8, !tbaa !15
  call void @H5S__hyper_adjust_u_helper(ptr noundef %130, i32 noundef %134, ptr noundef %135, i32 noundef 0, i64 noundef %136)
  call void @llvm.lifetime.end.p0(i64 8, ptr %7) #7
  br label %137

137:                                              ; preds = %123, %115
  br label %138

138:                                              ; preds = %137, %42
  br label %139

139:                                              ; preds = %138, %14
  call void @llvm.lifetime.end.p0(i64 4, ptr %6) #7
  call void @llvm.lifetime.end.p0(i64 1, ptr %5) #7
  ret i32 0
}