; Function Attrs: nofree nosync nounwind memory(readwrite, inaccessiblemem: none) uwtable
define internal noundef i32 @H5S__hyper_adjust_u(ptr noundef readonly captures(none) %0, ptr noundef readonly captures(none) %1) #3 {
  %3 = load i8, ptr @H5S_init_g, align 1, !tbaa !3, !range !7, !noundef !8
  %4 = trunc nuw i8 %3 to i1
  %5 = load i8, ptr @H5_libterm_g, align 1, !range !7
  %6 = trunc nuw i8 %5 to i1
  %7 = xor i1 %6, true
  %8 = select i1 %4, i1 true, i1 %7
  br i1 %8, label %.preheader28, label %.critedge, !prof !9

.preheader28:                                     ; preds = %2
  %9 = getelementptr inbounds nuw i8, ptr %0, i64 56
  %10 = load i32, ptr %9, align 8, !tbaa !21
  %.not32 = icmp eq i32 %10, 0
  br i1 %.not32, label %.critedge, label %.lr.ph.preheader

.lr.ph.preheader:                                 ; preds = %.preheader28
  %wide.trip.count = zext i32 %10 to i64
  br label %.lr.ph

11:                                               ; preds = %.lr.ph
  %indvars.iv.next = add nuw nsw i64 %indvars.iv, 1
  %exitcond.not = icmp eq i64 %indvars.iv.next, %wide.trip.count
  br i1 %exitcond.not, label %.critedge, label %.lr.ph, !llvm.loop !110

.lr.ph:                                           ; preds = %.lr.ph.preheader, %11
  %indvars.iv = phi i64 [ 0, %.lr.ph.preheader ], [ %indvars.iv.next, %11 ]
  %12 = getelementptr inbounds nuw i64, ptr %1, i64 %indvars.iv
  %13 = load i64, ptr %12, align 8, !tbaa !11
  %.not = icmp eq i64 %13, 0
  br i1 %.not, label %11, label %14

14:                                               ; preds = %.lr.ph
  %15 = getelementptr inbounds nuw i8, ptr %0, i64 360
  %16 = load ptr, ptr %15, align 8, !tbaa !10
  %17 = load i32, ptr %16, align 8, !tbaa !13
  %18 = icmp eq i32 %17, 2
  br i1 %18, label %.preheader, label %.loopexit

.preheader:                                       ; preds = %14, %.preheader
  %indvars.iv34 = phi i64 [ %indvars.iv.next35, %.preheader ], [ 0, %14 ]
  %19 = getelementptr inbounds nuw i64, ptr %1, i64 %indvars.iv34
  %20 = load i64, ptr %19, align 8, !tbaa !11
  %21 = load ptr, ptr %15, align 8, !tbaa !10
  %22 = getelementptr inbounds nuw i8, ptr %21, i64 1032
  %23 = getelementptr inbounds nuw [32 x %struct.H5S_hyper_dim_t], ptr %22, i64 0, i64 %indvars.iv34
  %24 = load i64, ptr %23, align 8, !tbaa !44
  %25 = sub i64 %24, %20
  store i64 %25, ptr %23, align 8, !tbaa !44
  %26 = load i64, ptr %19, align 8, !tbaa !11
  %27 = load ptr, ptr %15, align 8, !tbaa !10
  %28 = getelementptr inbounds nuw i8, ptr %27, i64 2056
  %29 = getelementptr inbounds nuw [32 x i64], ptr %28, i64 0, i64 %indvars.iv34
  %30 = load i64, ptr %29, align 8, !tbaa !11
  %31 = sub i64 %30, %26
  store i64 %31, ptr %29, align 8, !tbaa !11
  %32 = load i64, ptr %19, align 8, !tbaa !11
  %33 = load ptr, ptr %15, align 8, !tbaa !10
  %34 = getelementptr inbounds nuw i8, ptr %33, i64 2312
  %35 = getelementptr inbounds nuw [32 x i64], ptr %34, i64 0, i64 %indvars.iv34
  %36 = load i64, ptr %35, align 8, !tbaa !11
  %37 = sub i64 %36, %32
  store i64 %37, ptr %35, align 8, !tbaa !11
  %indvars.iv.next35 = add nuw nsw i64 %indvars.iv34, 1
  %exitcond38.not = icmp eq i64 %indvars.iv.next35, %wide.trip.count
  br i1 %exitcond38.not, label %.loopexit.loopexit, label %.preheader, !llvm.loop !111

.loopexit.loopexit:                               ; preds = %.preheader
  %.pre = load ptr, ptr %15, align 8, !tbaa !10
  br label %.loopexit

.loopexit:                                        ; preds = %.loopexit.loopexit, %14
  %38 = phi ptr [ %.pre, %.loopexit.loopexit ], [ %16, %14 ]
  %39 = getelementptr inbounds nuw i8, ptr %38, i64 2584
  %40 = load ptr, ptr %39, align 8, !tbaa !19
  %.not27 = icmp eq ptr %40, null
  br i1 %.not27, label %.critedge, label %41

41:                                               ; preds = %.loopexit
  %42 = load i64, ptr @H5S_hyper_op_gen_g, align 8, !tbaa !11
  %43 = add i64 %42, 1
  store i64 %43, ptr @H5S_hyper_op_gen_g, align 8, !tbaa !11
  tail call fastcc void @H5S__hyper_adjust_u_helper(ptr noundef nonnull %40, i32 noundef %10, ptr noundef nonnull %1, i64 noundef %42)
  br label %.critedge

.critedge:                                        ; preds = %11, %.preheader28, %41, %.loopexit, %2
  ret i32 0
}